target datalayout = "e-m:e-p270:32:32-p271:32:32-p272:64:64-i64:64-i128:128-f80:128-n8:16:32:64-S128"
target triple = "x86_64-unknown-linux-gnu"

%struct.Chardev = type { %struct.Object, %struct.QemuMutex, ptr, ptr, ptr, i32, i32, i8, ptr, ptr, [1 x i64] }
%struct.Object = type { ptr, ptr, ptr, i32, ptr }
%struct.QemuMutex = type { %union.pthread_mutex_t, i8 }
%union.pthread_mutex_t = type { %struct.__pthread_mutex_s }
%struct.__pthread_mutex_s = type { i32, i32, i32, i32, i32, i16, i16, %struct.__pthread_internal_list }
%struct.__pthread_internal_list = type { ptr, ptr }
%struct.CharBackend = type { ptr, ptr, ptr, ptr, ptr, ptr, i32, i32 }

; Function Attrs: nounwind sspstrong uwtable
define dso_local void @qemu_chr_be_write_impl(ptr noundef %s, ptr noundef %buf, i32 noundef %len) #0 {
entry:
  %s.addr = alloca ptr, align 8
  %buf.addr = alloca ptr, align 8
  %len.addr = alloca i32, align 4
  %be = alloca ptr, align 8
  store ptr %s, ptr %s.addr, align 8
  store ptr %buf, ptr %buf.addr, align 8
  store i32 %len, ptr %len.addr, align 4
  %0 = load ptr, ptr %s.addr, align 8
  %be1 = getelementptr inbounds %struct.Chardev, ptr %0, i32 0, i32 2
  %1 = load ptr, ptr %be1, align 8
  store ptr %1, ptr %be, align 8
  %2 = load ptr, ptr %be, align 8
  %tobool = icmp ne ptr %2, null
  br i1 %tobool, label %land.lhs.true, label %if.end

land.lhs.true:                                    ; preds = %entry
  %3 = load ptr, ptr %be, align 8
  %chr_read = getelementptr inbounds %struct.CharBackend, ptr %3, i32 0, i32 3
  %4 = load ptr, ptr %chr_read, align 8
  %tobool2 = icmp ne ptr %4, null
  br i1 %tobool2, label %if.then, label %if.end

if.then:                                          ; preds = %land.lhs.true
  %5 = load ptr, ptr %be, align 8
  %chr_read3 = getelementptr inbounds %struct.CharBackend, ptr %5, i32 0, i32 3
  %6 = load ptr, ptr %chr_read3, align 8
  %7 = load ptr, ptr %be, align 8
  %opaque = getelementptr inbounds %struct.CharBackend, ptr %7, i32 0, i32 5
  %8 = load ptr, ptr %opaque, align 8
  %9 = load ptr, ptr %buf.addr, align 8
  %10 = load i32, ptr %len.addr, align 4
  call void %6(ptr noundef %8, ptr noundef %9, i32 noundef %10)
  br label %if.end

if.end:                                           ; preds = %if.then, %land.lhs.true, %entry
  ret void
}