; Function Attrs: nounwind sspstrong uwtable
define dso_local void @qemu_chr_be_write_impl(ptr noundef readonly captures(none) %s, ptr noundef %buf, i32 noundef %len) local_unnamed_addr #0 {
entry:
  %be1 = getelementptr inbounds nuw i8, ptr %s, i64 88
  %0 = load ptr, ptr %be1, align 8
  %tobool.not = icmp eq ptr %0, null
  br i1 %tobool.not, label %if.end, label %land.lhs.true

land.lhs.true:                                    ; preds = %entry
  %chr_read = getelementptr inbounds nuw i8, ptr %0, i64 24
  %1 = load ptr, ptr %chr_read, align 8
  %tobool2.not = icmp eq ptr %1, null
  br i1 %tobool2.not, label %if.end, label %if.then

if.then:                                          ; preds = %land.lhs.true
  %opaque = getelementptr inbounds nuw i8, ptr %0, i64 40
  %2 = load ptr, ptr %opaque, align 8
  tail call void %1(ptr noundef %2, ptr noundef %buf, i32 noundef %len) #13
  br label %if.end

if.end:                                           ; preds = %if.then, %land.lhs.true, %entry
  ret void
}